target datalayout = "e-m:e-p270:32:32-p271:32:32-p272:64:64-i64:64-i128:128-f80:128-n8:16:32:64-S128"
target triple = "x86_64-pc-linux-gnu"

%struct._zend_llist = type { ptr, ptr, i64, i64, ptr, i8, ptr }
%struct._zend_llist_element = type { ptr, ptr, [1 x i8] }

; Function Attrs: nounwind uwtable
define void @zend_llist_destroy(ptr noundef %0) #0 {
  %2 = alloca ptr, align 8
  %3 = alloca ptr, align 8
  %4 = alloca ptr, align 8
  store ptr %0, ptr %2, align 8
  %5 = load ptr, ptr %2, align 8
  %6 = getelementptr inbounds %struct._zend_llist, ptr %5, i32 0, i32 0
  %7 = load ptr, ptr %6, align 8
  store ptr %7, ptr %3, align 8
  br label %8

8:                                                ; preds = %36, %1
  %9 = load ptr, ptr %3, align 8
  %10 = icmp ne ptr %9, null
  br i1 %10, label %11, label %38

11:                                               ; preds = %8
  %12 = load ptr, ptr %3, align 8
  %13 = getelementptr inbounds %struct._zend_llist_element, ptr %12, i32 0, i32 0
  %14 = load ptr, ptr %13, align 8
  store ptr %14, ptr %4, align 8
  %15 = load ptr, ptr %2, align 8
  %16 = getelementptr inbounds %struct._zend_llist, ptr %15, i32 0, i32 4
  %17 = load ptr, ptr %16, align 8
  %18 = icmp ne ptr %17, null
  br i1 %18, label %19, label %26

19:                                               ; preds = %11
  %20 = load ptr, ptr %2, align 8
  %21 = getelementptr inbounds %struct._zend_llist, ptr %20, i32 0, i32 4
  %22 = load ptr, ptr %21, align 8
  %23 = load ptr, ptr %3, align 8
  %24 = getelementptr inbounds %struct._zend_llist_element, ptr %23, i32 0, i32 2
  %25 = getelementptr inbounds [1 x i8], ptr %24, i64 0, i64 0
  call void %22(ptr noundef %25)
  br label %26

26:                                               ; preds = %19, %11
  %27 = load ptr, ptr %2, align 8
  %28 = getelementptr inbounds %struct._zend_llist, ptr %27, i32 0, i32 5
  %29 = load i8, ptr %28, align 8
  %30 = zext i8 %29 to i32
  %31 = icmp ne i32 %30, 0
  br i1 %31, label %32, label %34

32:                                               ; preds = %26
  %33 = load ptr, ptr %3, align 8
  call void @free(ptr noundef %33) #8
  br label %36

34:                                               ; preds = %26
  %35 = load ptr, ptr %3, align 8
  call void @_efree(ptr noundef %35)
  br label %36

36:                                               ; preds = %34, %32
  %37 = load ptr, ptr %4, align 8
  store ptr %37, ptr %3, align 8
  br label %8

38:                                               ; preds = %8
  %39 = load ptr, ptr %2, align 8
  %40 = getelementptr inbounds %struct._zend_llist, ptr %39, i32 0, i32 0
  store ptr null, ptr %40, align 8
  %41 = load ptr, ptr %2, align 8
  %42 = getelementptr inbounds %struct._zend_llist, ptr %41, i32 0, i32 1
  store ptr null, ptr %42, align 8
  %43 = load ptr, ptr %2, align 8
  %44 = getelementptr inbounds %struct._zend_llist, ptr %43, i32 0, i32 2
  store i64 0, ptr %44, align 8
  ret void
}

; Function Attrs: nounwind uwtable
define void @zend_llist_clean(ptr noundef %0) #0 {
  %2 = alloca ptr, align 8
  store ptr %0, ptr %2, align 8
  %3 = load ptr, ptr %2, align 8
  call void @zend_llist_destroy(ptr noundef %3)
  %4 = load ptr, ptr %2, align 8
  %5 = getelementptr inbounds %struct._zend_llist, ptr %4, i32 0, i32 1
  store ptr null, ptr %5, align 8
  %6 = load ptr, ptr %2, align 8
  %7 = getelementptr inbounds %struct._zend_llist, ptr %6, i32 0, i32 0
  store ptr null, ptr %7, align 8
  ret void
}