; Function Attrs: nounwind uwtable
define void @zend_llist_clean(ptr nocapture noundef %0) local_unnamed_addr #1 {
  %2 = load ptr, ptr %0, align 8
  %.not16.i = icmp eq ptr %2, null
  br i1 %.not16.i, label %zend_llist_destroy.exit, label %.lr.ph.i

.lr.ph.i:                                         ; preds = %1
  %3 = getelementptr inbounds i8, ptr %0, i64 32
  %4 = getelementptr inbounds i8, ptr %0, i64 40
  br label %5

5:                                                ; preds = %14, %.lr.ph.i
  %.017.i = phi ptr [ %2, %.lr.ph.i ], [ %6, %14 ]
  %6 = load ptr, ptr %.017.i, align 8
  %7 = load ptr, ptr %3, align 8
  %.not14.i = icmp eq ptr %7, null
  br i1 %.not14.i, label %10, label %8

8:                                                ; preds = %5
  %9 = getelementptr inbounds i8, ptr %.017.i, i64 16
  tail call void %7(ptr noundef nonnull %9) #13
  br label %10

10:                                               ; preds = %8, %5
  %11 = load i8, ptr %4, align 8
  %.not15.i = icmp eq i8 %11, 0
  br i1 %.not15.i, label %13, label %12

12:                                               ; preds = %10
  tail call void @free(ptr noundef nonnull %.017.i) #13
  br label %14

13:                                               ; preds = %10
  tail call void @_efree(ptr noundef nonnull %.017.i) #13
  br label %14

14:                                               ; preds = %13, %12
  %.not.i = icmp eq ptr %6, null
  br i1 %.not.i, label %zend_llist_destroy.exit, label %5

zend_llist_destroy.exit:                          ; preds = %14, %1
  tail call void @llvm.memset.p0.i64(ptr noundef nonnull align 8 dereferenceable(24) %0, i8 0, i64 24, i1 false)
  ret void
}